; Function Attrs: nounwind sspstrong uwtable
define internal void @generate_json_integer(ptr noundef captures(none) %0, ptr readnone captures(none) %1, ptr readnone captures(none) %2, i64 noundef %3) #0 {
  %5 = alloca i64, align 8
  %6 = alloca ptr, align 8
  %7 = alloca [20 x i8], align 16
  %8 = and i64 %3, 1
  %.not = icmp eq i64 %8, 0
  br i1 %.not, label %35, label %9

9:                                                ; preds = %4
  %10 = ashr i64 %3, 1
  call void @llvm.lifetime.start.p0(i64 20, ptr nonnull %7) #22
  %spec.select.i.i.i = tail call i64 @llvm.abs.i64(i64 range(i64 -4611686018427387904, 4611686018427387904) %10, i1 true)
  br label %11

11:                                               ; preds = %11, %9
  %.111.i.i.i = phi i64 [ %spec.select.i.i.i, %9 ], [ %15, %11 ]
  %.0.i.idx.i.i = phi i64 [ 19, %9 ], [ %.0.i.add.i.i, %11 ]
  %.0.i.ptr.i.i = getelementptr inbounds i8, ptr %7, i64 %.0.i.idx.i.i
  %12 = urem i64 %.111.i.i.i, 10
  %13 = getelementptr inbounds nuw [11 x i8], ptr @fltoa.digits, i64 0, i64 %12
  %14 = load i8, ptr %13, align 1, !tbaa !59
  %.0.i.add.i.i = add nsw i64 %.0.i.idx.i.i, -1
  store i8 %14, ptr %.0.i.ptr.i.i, align 1, !tbaa !59
  %15 = udiv i64 %.111.i.i.i, 10
  %.not.i.i.i = icmp samesign ult i64 %.111.i.i.i, 10
  br i1 %.not.i.i.i, label %16, label %11

16:                                               ; preds = %11
  %17 = icmp slt i64 %10, 0
  br i1 %17, label %18, label %fltoa.exit.i.i

18:                                               ; preds = %16
  %.ptr.le.i.i = getelementptr inbounds i8, ptr %7, i64 %.0.i.add.i.i
  %.0.i.add6.i.i = add nsw i64 %.0.i.idx.i.i, -2
  store i8 45, ptr %.ptr.le.i.i, align 1, !tbaa !59
  br label %fltoa.exit.i.i

fltoa.exit.i.i:                                   ; preds = %18, %16
  %.1.i.idx.i.i = phi i64 [ %.0.i.add6.i.i, %18 ], [ %.0.i.add.i.i, %16 ]
  %gepdiff.i.i = sub nsw i64 19, %.1.i.idx.i.i
  %19 = getelementptr inbounds nuw i8, ptr %7, i64 1
  %20 = getelementptr i8, ptr %19, i64 %.1.i.idx.i.i
  %.not.i5.i.i = icmp eq i64 %.1.i.idx.i.i, 19
  br i1 %.not.i5.i.i, label %generate_json_fixnum.exit, label %21

21:                                               ; preds = %fltoa.exit.i.i
  %22 = getelementptr inbounds nuw i8, ptr %0, i64 24
  %23 = load i64, ptr %22, align 8, !tbaa !47
  %24 = getelementptr inbounds nuw i8, ptr %0, i64 16
  %25 = load i64, ptr %24, align 8, !tbaa !56
  %26 = sub i64 %23, %25
  %27 = icmp ugt i64 %gepdiff.i.i, %26
  br i1 %27, label %28, label %ruby_nonempty_memcpy.exit.i.i.i, !prof !58

28:                                               ; preds = %21
  tail call fastcc void @fbuffer_do_inc_capa(ptr noundef nonnull %0, i64 noundef range(i64 1, 0) %gepdiff.i.i)
  %.pre.i.i.i = load i64, ptr %24, align 8, !tbaa !56
  br label %ruby_nonempty_memcpy.exit.i.i.i

ruby_nonempty_memcpy.exit.i.i.i:                  ; preds = %28, %21
  %29 = phi i64 [ %.pre.i.i.i, %28 ], [ %25, %21 ]
  %30 = getelementptr inbounds nuw i8, ptr %0, i64 32
  %31 = load ptr, ptr %30, align 8, !tbaa !46
  %32 = getelementptr inbounds nuw i8, ptr %31, i64 %29
  call void @llvm.memcpy.p0.p0.i64(ptr noundef nonnull align 1 %32, ptr noundef nonnull readonly align 1 %20, i64 noundef range(i64 1, 0) %gepdiff.i.i, i1 noundef false) #22
  %33 = load i64, ptr %24, align 8, !tbaa !56
  %34 = add i64 %33, %gepdiff.i.i
  store i64 %34, ptr %24, align 8, !tbaa !56
  br label %generate_json_fixnum.exit

generate_json_fixnum.exit:                        ; preds = %fltoa.exit.i.i, %ruby_nonempty_memcpy.exit.i.i.i
  call void @llvm.lifetime.end.p0(i64 20, ptr nonnull %7) #22
  br label %59

35:                                               ; preds = %4
  %36 = load i64, ptr @i_to_s, align 8, !tbaa !6
  %37 = tail call i64 (i64, i64, i32, ...) @rb_funcall(i64 noundef %3, i64 noundef %36, i32 noundef 0) #22
  call void @llvm.lifetime.start.p0(i64 8, ptr nonnull %5)
  store i64 %37, ptr %5, align 8, !tbaa !6
  %38 = call ptr @rb_string_value_ptr(ptr noundef nonnull %5) #22
  %39 = load i64, ptr %5, align 8, !tbaa !6
  %40 = inttoptr i64 %39 to ptr
  %41 = getelementptr inbounds nuw i8, ptr %40, i64 16
  %42 = load i64, ptr %41, align 8, !tbaa !31
  call void @llvm.lifetime.start.p0(i64 8, ptr nonnull %6) #22
  store ptr %5, ptr %6, align 8, !tbaa !61
  call void asm sideeffect "", "*m,~{dirflag},~{fpsr},~{flags}"(ptr nonnull elementtype(ptr) %6) #22, !srcloc !63
  %43 = load ptr, ptr %6, align 8, !tbaa !61
  call void @llvm.lifetime.end.p0(i64 8, ptr nonnull %6) #22
  %44 = load volatile i64, ptr %43, align 8, !tbaa !6
  %.not.i.i.i8 = icmp eq i64 %42, 0
  br i1 %.not.i.i.i8, label %generate_json_bignum.exit, label %45

45:                                               ; preds = %35
  %46 = getelementptr inbounds nuw i8, ptr %0, i64 24
  %47 = load i64, ptr %46, align 8, !tbaa !47
  %48 = getelementptr inbounds nuw i8, ptr %0, i64 16
  %49 = load i64, ptr %48, align 8, !tbaa !56
  %50 = sub i64 %47, %49
  %51 = icmp ugt i64 %42, %50
  br i1 %51, label %52, label %ruby_nonempty_memcpy.exit.i.i.i9, !prof !58

52:                                               ; preds = %45
  call fastcc void @fbuffer_do_inc_capa(ptr noundef nonnull %0, i64 noundef range(i64 1, 0) %42)
  %.pre.i.i.i10 = load i64, ptr %48, align 8, !tbaa !56
  br label %ruby_nonempty_memcpy.exit.i.i.i9

ruby_nonempty_memcpy.exit.i.i.i9:                 ; preds = %52, %45
  %53 = phi i64 [ %.pre.i.i.i10, %52 ], [ %49, %45 ]
  %54 = getelementptr inbounds nuw i8, ptr %0, i64 32
  %55 = load ptr, ptr %54, align 8, !tbaa !46
  %56 = getelementptr inbounds nuw i8, ptr %55, i64 %53
  call void @llvm.memcpy.p0.p0.i64(ptr noundef nonnull align 1 %56, ptr noundef nonnull readonly align 1 %38, i64 noundef range(i64 1, 0) %42, i1 noundef false) #22
  %57 = load i64, ptr %48, align 8, !tbaa !56
  %58 = add i64 %57, %42
  store i64 %58, ptr %48, align 8, !tbaa !56
  br label %generate_json_bignum.exit

generate_json_bignum.exit:                        ; preds = %35, %ruby_nonempty_memcpy.exit.i.i.i9
  call void @llvm.lifetime.end.p0(i64 8, ptr nonnull %5)
  br label %59

59:                                               ; preds = %generate_json_bignum.exit, %generate_json_fixnum.exit
  ret void
}